target datalayout = "e-m:e-p270:32:32-p271:32:32-p272:64:64-i64:64-i128:128-f80:128-n8:16:32:64-S128"
target triple = "x86_64-pc-linux-gnu"

@.str.1 = private unnamed_addr constant [14 x i8] c"tsearchcmds.c\00", align 1
@.str.32 = private unnamed_addr constant [34 x i8] c"function %s should return type %s\00", align 1
@.str.35 = private unnamed_addr constant [52 x i8] c"unrecognized attribute for text search template: %d\00", align 1
@__func__.get_ts_template_func = private unnamed_addr constant [21 x i8] c"get_ts_template_func\00", align 1

; Function Attrs: inlinehint nounwind uwtable
define internal i64 @ObjectIdGetDatum(i32 noundef %0) #5 {
  %2 = alloca i32, align 4
  store i32 %0, ptr %2, align 4
  %3 = load i32, ptr %2, align 4
  %4 = zext i32 %3 to i64
  ret i64 %4
}

; Function Attrs: nounwind uwtable
define internal i64 @get_ts_template_func(ptr noundef %0, i32 noundef %1) #0 {
  %3 = alloca ptr, align 8
  %4 = alloca i32, align 4
  %5 = alloca ptr, align 8
  %6 = alloca [4 x i32], align 16
  %7 = alloca i32, align 4
  %8 = alloca i32, align 4
  %9 = alloca i32, align 4
  store ptr %0, ptr %3, align 8
  store i32 %1, ptr %4, align 4
  call void @llvm.lifetime.start.p0(i64 8, ptr %5) #10
  %10 = load ptr, ptr %3, align 8
  %11 = call ptr @defGetQualifiedName(ptr noundef %10)
  store ptr %11, ptr %5, align 8
  call void @llvm.lifetime.start.p0(i64 16, ptr %6) #10
  call void @llvm.lifetime.start.p0(i64 4, ptr %7) #10
  call void @llvm.lifetime.start.p0(i64 4, ptr %8) #10
  call void @llvm.lifetime.start.p0(i64 4, ptr %9) #10
  store i32 2281, ptr %7, align 4
  %12 = getelementptr inbounds [4 x i32], ptr %6, i64 0, i64 0
  store i32 2281, ptr %12, align 16
  %13 = getelementptr inbounds [4 x i32], ptr %6, i64 0, i64 1
  store i32 2281, ptr %13, align 4
  %14 = getelementptr inbounds [4 x i32], ptr %6, i64 0, i64 2
  store i32 2281, ptr %14, align 8
  %15 = getelementptr inbounds [4 x i32], ptr %6, i64 0, i64 3
  store i32 2281, ptr %15, align 4
  %16 = load i32, ptr %4, align 4
  switch i32 %16, label %19 [
    i32 4, label %17
    i32 5, label %18
  ]

17:                                               ; preds = %2
  store i32 1, ptr %8, align 4
  br label %31

18:                                               ; preds = %2
  store i32 4, ptr %8, align 4
  br label %31

19:                                               ; preds = %2
  br label %20

20:                                               ; preds = %19
  br i1 true, label %21, label %23

21:                                               ; preds = %20
  %22 = call zeroext i1 @errstart_cold(i32 noundef 21, ptr noundef null) #11
  br i1 %22, label %25, label %28

23:                                               ; preds = %20
  %24 = call zeroext i1 @errstart(i32 noundef 21, ptr noundef null)
  br i1 %24, label %25, label %28

25:                                               ; preds = %23, %21
  %26 = load i32, ptr %4, align 4
  %27 = call i32 (ptr, ...) @errmsg_internal(ptr noundef @.str.35, i32 noundef %26)
  call void @errfinish(ptr noundef @.str.1, i32 noundef 633, ptr noundef @__func__.get_ts_template_func)
  br label %28

28:                                               ; preds = %25, %23, %21
  unreachable

29:                                               ; No predecessors!
  br label %30

30:                                               ; preds = %29
  store i32 0, ptr %8, align 4
  br label %31

31:                                               ; preds = %30, %18, %17
  %32 = load ptr, ptr %5, align 8
  %33 = load i32, ptr %8, align 4
  %34 = getelementptr inbounds [4 x i32], ptr %6, i64 0, i64 0
  %35 = call i32 @LookupFuncName(ptr noundef %32, i32 noundef %33, ptr noundef %34, i1 noundef zeroext false)
  store i32 %35, ptr %9, align 4
  %36 = load i32, ptr %9, align 4
  %37 = call i32 @get_func_rettype(i32 noundef %36)
  %38 = load i32, ptr %7, align 4
  %39 = icmp ne i32 %37, %38
  br i1 %39, label %40, label %58

40:                                               ; preds = %31
  br label %41

41:                                               ; preds = %40
  br i1 true, label %42, label %44

42:                                               ; preds = %41
  %43 = call zeroext i1 @errstart_cold(i32 noundef 21, ptr noundef null) #11
  br i1 %43, label %46, label %55

44:                                               ; preds = %41
  %45 = call zeroext i1 @errstart(i32 noundef 21, ptr noundef null)
  br i1 %45, label %46, label %55

46:                                               ; preds = %44, %42
  %47 = call i32 @errcode(i32 noundef 117833860)
  %48 = load ptr, ptr %5, align 8
  %49 = load i32, ptr %8, align 4
  %50 = getelementptr inbounds [4 x i32], ptr %6, i64 0, i64 0
  %51 = call ptr @func_signature_string(ptr noundef %48, i32 noundef %49, ptr noundef null, ptr noundef %50)
  %52 = load i32, ptr %7, align 4
  %53 = call ptr @format_type_be(i32 noundef %52)
  %54 = call i32 (ptr, ...) @errmsg(ptr noundef @.str.32, ptr noundef %51, ptr noundef %53)
  call void @errfinish(ptr noundef @.str.1, i32 noundef 643, ptr noundef @__func__.get_ts_template_func)
  br label %55

55:                                               ; preds = %46, %44, %42
  unreachable

56:                                               ; No predecessors!
  br label %57

57:                                               ; preds = %56
  br label %58

58:                                               ; preds = %57, %31
  %59 = load i32, ptr %9, align 4
  %60 = call i64 @ObjectIdGetDatum(i32 noundef %59)
  call void @llvm.lifetime.end.p0(i64 4, ptr %9) #10
  call void @llvm.lifetime.end.p0(i64 4, ptr %8) #10
  call void @llvm.lifetime.end.p0(i64 4, ptr %7) #10
  call void @llvm.lifetime.end.p0(i64 16, ptr %6) #10
  call void @llvm.lifetime.end.p0(i64 8, ptr %5) #10
  ret i64 %60
}